(i__main__
LogFile
p0
(dp1
S'_installed_files'
p2
(dp3
S'../../InnerDetector/InDetMonitoring/SCT_Monitoring/genConf/SCT_Monitoring'
p4
(dp5
S'../../../InnerDetector/InDetMonitoring/SCT_Monitoring/genConf/SCT_Monitoring/SCT_MonitoringConf.py'
p6
S'../../../../InstallArea/python/SCT_Monitoring/SCT_MonitoringConf.py'
p7
sssb.